target datalayout = "e-m:e-p270:32:32-p271:32:32-p272:64:64-i64:64-i128:128-f80:128-n8:16:32:64-S128"
target triple = "x86_64-pc-linux-gnu"

%struct.H5MF_free_section_t = type { %struct.H5FS_section_info_t }
%struct.H5FS_section_info_t = type { i64, i64, i32, i32 }
%struct.H5MF_sect_ud_t = type { ptr, i32, i8, i8, i32, ptr }
%struct.H5F_t = type { ptr, ptr, ptr, ptr, i32, ptr, i8, i8, ptr, i32 }
%struct.H5F_shared_t = type { ptr, ptr, ptr, i8, i32, i32, %struct.H5F_mtab_t, ptr, i8, i8, i64, i32, i32, i64, i64, ptr, ptr, %struct.H5AC_cache_config_t, %struct.H5AC_cache_image_config_t, i8, i8, ptr, i64, i32, i8, i64, i64, double, i64, i64, i64, i32, i32, i32, i8, i32, ptr, ptr, ptr, ptr, i8, i8, i8, i64, i64, ptr, ptr, i32, i64, i8, i32, i8, i64, i8, [13 x i32], [13 x i64], [13 x ptr], i8, i64, i64, [7 x i32], [7 x i32], %struct.H5F_blk_aggr_t, %struct.H5F_blk_aggr_t, i64, i64, %struct.H5F_meta_accum_t, i32, i32, [30 x ptr], %struct.H5F_object_flush_t, i8, ptr }
%struct.H5F_mtab_t = type { i32, i32, ptr }
%struct.H5AC_cache_config_t = type { i32, i8, i8, i8, [1025 x i8], i8, i8, i64, double, i64, i64, i64, i32, double, double, i8, i64, i32, double, double, i32, double, double, i8, i64, i32, i8, double, i64, i32 }
%struct.H5AC_cache_image_config_t = type { i32, i8, i8, i32 }
%struct.H5F_blk_aggr_t = type { i64, i64, i64, i64, i64 }
%struct.H5F_meta_accum_t = type { ptr, i64, i64, i64, i64, i64, i8 }
%struct.H5F_object_flush_t = type { ptr, ptr }

@.str = private unnamed_addr constant [105 x i8] c"generated/home/dtcxzyw/WorkSpace/Projects/compilers/llvm-opt-benchmark/bench/hdf5/hdf5/src/H5MFsection.c\00", align 1
@H5E_RESOURCE_g = external global i64, align 8
@H5E_CANTGET_g = external global i64, align 8
@.str.5 = private unnamed_addr constant [30 x i8] c"driver get_eoa request failed\00", align 1
@__func__.H5MF__sect_large_can_shrink = private unnamed_addr constant [28 x i8] c"H5MF__sect_large_can_shrink\00", align 1

; Function Attrs: nounwind uwtable
define internal i32 @H5MF__sect_large_can_shrink(ptr noundef %0, ptr noundef %1) #0 {
  %3 = alloca ptr, align 8
  %4 = alloca ptr, align 8
  %5 = alloca ptr, align 8
  %6 = alloca ptr, align 8
  %7 = alloca i64, align 8
  %8 = alloca i64, align 8
  %9 = alloca i32, align 4
  %10 = alloca i8, align 1
  store ptr %0, ptr %3, align 8
  store ptr %1, ptr %4, align 8
  %11 = load ptr, ptr %3, align 8
  store ptr %11, ptr %5, align 8
  %12 = load ptr, ptr %4, align 8
  store ptr %12, ptr %6, align 8
  store i32 0, ptr %9, align 4
  store i8 0, ptr %10, align 1
  %13 = load ptr, ptr %6, align 8
  %14 = getelementptr inbounds %struct.H5MF_sect_ud_t, ptr %13, i32 0, i32 0
  %15 = load ptr, ptr %14, align 8
  %16 = getelementptr inbounds %struct.H5F_t, ptr %15, i32 0, i32 2
  %17 = load ptr, ptr %16, align 8
  %18 = getelementptr inbounds %struct.H5F_shared_t, ptr %17, i32 0, i32 0
  %19 = load ptr, ptr %18, align 8
  %20 = load ptr, ptr %6, align 8
  %21 = getelementptr inbounds %struct.H5MF_sect_ud_t, ptr %20, i32 0, i32 1
  %22 = load i32, ptr %21, align 8
  %23 = call i64 @H5FD_get_eoa(ptr noundef %19, i32 noundef %22)
  store i64 %23, ptr %7, align 8
  %24 = icmp eq i64 -1, %23
  br i1 %24, label %25, label %40

25:                                               ; preds = %2
  br label %26

26:                                               ; preds = %25
  br label %27

27:                                               ; preds = %26
  br label %28

28:                                               ; preds = %27
  %29 = load i64, ptr @H5E_RESOURCE_g, align 8
  %30 = load i64, ptr @H5E_CANTGET_g, align 8
  %31 = call i32 (ptr, ptr, i32, i64, i64, ptr, ...) @H5E_printf_stack(ptr noundef @.str, ptr noundef @__func__.H5MF__sect_large_can_shrink, i32 noundef 851, i64 noundef %29, i64 noundef %30, ptr noundef @.str.5)
  br label %32

32:                                               ; preds = %28
  store i8 1, ptr %10, align 1
  %33 = load i8, ptr %10, align 1
  %34 = trunc i8 %33 to i1
  %35 = zext i1 %34 to i8
  store i8 %35, ptr %10, align 1
  br label %36

36:                                               ; preds = %32
  br label %37

37:                                               ; preds = %36
  store i32 -1, ptr %9, align 4
  br label %75

38:                                               ; No predecessors!
  br label %39

39:                                               ; preds = %38
  br label %40

40:                                               ; preds = %39, %2
  %41 = load ptr, ptr %5, align 8
  %42 = getelementptr inbounds %struct.H5MF_free_section_t, ptr %41, i32 0, i32 0
  %43 = getelementptr inbounds %struct.H5FS_section_info_t, ptr %42, i32 0, i32 0
  %44 = load i64, ptr %43, align 8
  %45 = load ptr, ptr %5, align 8
  %46 = getelementptr inbounds %struct.H5MF_free_section_t, ptr %45, i32 0, i32 0
  %47 = getelementptr inbounds %struct.H5FS_section_info_t, ptr %46, i32 0, i32 1
  %48 = load i64, ptr %47, align 8
  %49 = add i64 %44, %48
  store i64 %49, ptr %8, align 8
  %50 = load i64, ptr %8, align 8
  %51 = icmp ne i64 %50, -1
  br i1 %51, label %52, label %74

52:                                               ; preds = %40
  %53 = load i64, ptr %8, align 8
  %54 = load i64, ptr %7, align 8
  %55 = icmp eq i64 %53, %54
  br i1 %55, label %56, label %74

56:                                               ; preds = %52
  %57 = load ptr, ptr %5, align 8
  %58 = getelementptr inbounds %struct.H5MF_free_section_t, ptr %57, i32 0, i32 0
  %59 = getelementptr inbounds %struct.H5FS_section_info_t, ptr %58, i32 0, i32 1
  %60 = load i64, ptr %59, align 8
  %61 = load ptr, ptr %6, align 8
  %62 = getelementptr inbounds %struct.H5MF_sect_ud_t, ptr %61, i32 0, i32 0
  %63 = load ptr, ptr %62, align 8
  %64 = getelementptr inbounds %struct.H5F_t, ptr %63, i32 0, i32 2
  %65 = load ptr, ptr %64, align 8
  %66 = getelementptr inbounds %struct.H5F_shared_t, ptr %65, i32 0, i32 64
  %67 = load i64, ptr %66, align 8
  %68 = icmp uge i64 %60, %67
  br i1 %68, label %69, label %74

69:                                               ; preds = %56
  %70 = load ptr, ptr %6, align 8
  %71 = getelementptr inbounds %struct.H5MF_sect_ud_t, ptr %70, i32 0, i32 4
  store i32 0, ptr %71, align 8
  br label %72

72:                                               ; preds = %69
  store i32 1, ptr %9, align 4
  br label %75

73:                                               ; No predecessors!
  br label %74

74:                                               ; preds = %73, %56, %52, %40
  br label %75

75:                                               ; preds = %74, %72, %37
  %76 = load i32, ptr %9, align 4
  ret i32 %76
}