; Function Attrs: nounwind uwtable
define internal range(i32 -1, 2) i32 @H5MF__sect_large_can_shrink(ptr nocapture noundef readonly %0, ptr nocapture noundef %1) #0 {
  %3 = load ptr, ptr %1, align 8
  %4 = getelementptr inbounds i8, ptr %3, i64 16
  %5 = load ptr, ptr %4, align 8
  %6 = load ptr, ptr %5, align 8
  %7 = getelementptr inbounds i8, ptr %1, i64 8
  %8 = load i32, ptr %7, align 8
  %9 = tail call i64 @H5FD_get_eoa(ptr noundef %6, i32 noundef %8) #5
  %10 = icmp eq i64 %9, -1
  br i1 %10, label %11, label %15

11:                                               ; preds = %2
  %12 = load i64, ptr @H5E_RESOURCE_g, align 8
  %13 = load i64, ptr @H5E_CANTGET_g, align 8
  %14 = tail call i32 (ptr, ptr, i32, i64, i64, ptr, ...) @H5E_printf_stack(ptr noundef nonnull @.str, ptr noundef nonnull @__func__.H5MF__sect_large_can_shrink, i32 noundef 851, i64 noundef %12, i64 noundef %13, ptr noundef nonnull @.str.5) #5
  br label %29

15:                                               ; preds = %2
  %16 = load i64, ptr %0, align 8
  %17 = getelementptr inbounds i8, ptr %0, i64 8
  %18 = load i64, ptr %17, align 8
  %19 = add i64 %18, %16
  %20 = icmp eq i64 %19, %9
  br i1 %20, label %21, label %29

21:                                               ; preds = %15
  %22 = load ptr, ptr %1, align 8
  %23 = getelementptr inbounds i8, ptr %22, i64 16
  %24 = load ptr, ptr %23, align 8
  %25 = getelementptr inbounds i8, ptr %24, i64 1984
  %26 = load i64, ptr %25, align 8
  %.not15 = icmp ult i64 %18, %26
  br i1 %.not15, label %29, label %27

27:                                               ; preds = %21
  %28 = getelementptr inbounds i8, ptr %1, i64 16
  store i32 0, ptr %28, align 8
  br label %29

29:                                               ; preds = %15, %21, %27, %11
  %.0 = phi i32 [ -1, %11 ], [ 1, %27 ], [ 0, %21 ], [ 0, %15 ]
  ret i32 %.0
}